target datalayout = "e-m:e-p270:32:32-p271:32:32-p272:64:64-i64:64-i128:128-f80:128-n8:16:32:64-S128"
target triple = "x86_64-pc-linux-gnu"

%struct.wtapng_block_s = type { i32, i32, ptr, ptr, ptr }
%struct.section_info_t = type { i32, i16, i16, ptr, i64, i32, i64, i64 }

; Function Attrs: nounwind uwtable
define void @pcapng_process_timestamp_option(ptr noundef %0, ptr noundef %1, i32 noundef %2, i16 noundef zeroext %3, i16 noundef zeroext %4, ptr noundef %5) #0 {
  %7 = alloca ptr, align 8
  %8 = alloca ptr, align 8
  %9 = alloca i32, align 4
  %10 = alloca i16, align 2
  %11 = alloca i16, align 2
  %12 = alloca ptr, align 8
  %13 = alloca i32, align 4
  %14 = alloca i32, align 4
  %15 = alloca i64, align 8
  store ptr %0, ptr %7, align 8
  store ptr %1, ptr %8, align 8
  store i32 %2, ptr %9, align 4
  store i16 %3, ptr %10, align 2
  store i16 %4, ptr %11, align 2
  store ptr %5, ptr %12, align 8
  %16 = load i16, ptr %11, align 2
  %17 = zext i16 %16 to i32
  %18 = icmp eq i32 %17, 8
  br i1 %18, label %19, label %112

19:                                               ; preds = %6
  %20 = load ptr, ptr %12, align 8
  call void @llvm.memcpy.p0.p0.i64(ptr align 4 %13, ptr align 1 %20, i64 4, i1 false)
  %21 = load ptr, ptr %12, align 8
  %22 = getelementptr i8, ptr %21, i64 4
  call void @llvm.memcpy.p0.p0.i64(ptr align 4 %14, ptr align 1 %22, i64 4, i1 false)
  %23 = load i32, ptr %9, align 4
  switch i32 %23, label %95 [
    i32 0, label %24
    i32 1, label %61
    i32 2, label %92
  ]

24:                                               ; preds = %19
  %25 = load ptr, ptr %8, align 8
  %26 = getelementptr inbounds %struct.section_info_t, ptr %25, i32 0, i32 0
  %27 = load i32, ptr %26, align 8
  %28 = icmp ne i32 %27, 0
  br i1 %28, label %29, label %60

29:                                               ; preds = %24
  %30 = load i32, ptr %13, align 4
  %31 = and i32 %30, 255
  %32 = shl i32 %31, 24
  %33 = load i32, ptr %13, align 4
  %34 = and i32 %33, 65280
  %35 = shl i32 %34, 8
  %36 = or i32 %32, %35
  %37 = load i32, ptr %13, align 4
  %38 = and i32 %37, 16711680
  %39 = lshr i32 %38, 8
  %40 = or i32 %36, %39
  %41 = load i32, ptr %13, align 4
  %42 = and i32 %41, -16777216
  %43 = lshr i32 %42, 24
  %44 = or i32 %40, %43
  store i32 %44, ptr %13, align 4
  %45 = load i32, ptr %14, align 4
  %46 = and i32 %45, 255
  %47 = shl i32 %46, 24
  %48 = load i32, ptr %14, align 4
  %49 = and i32 %48, 65280
  %50 = shl i32 %49, 8
  %51 = or i32 %47, %50
  %52 = load i32, ptr %14, align 4
  %53 = and i32 %52, 16711680
  %54 = lshr i32 %53, 8
  %55 = or i32 %51, %54
  %56 = load i32, ptr %14, align 4
  %57 = and i32 %56, -16777216
  %58 = lshr i32 %57, 24
  %59 = or i32 %55, %58
  store i32 %59, ptr %14, align 4
  br label %60

60:                                               ; preds = %29, %24
  br label %96

61:                                               ; preds = %19
  %62 = load i32, ptr %13, align 4
  %63 = and i32 %62, 255
  %64 = shl i32 %63, 24
  %65 = load i32, ptr %13, align 4
  %66 = and i32 %65, 65280
  %67 = shl i32 %66, 8
  %68 = or i32 %64, %67
  %69 = load i32, ptr %13, align 4
  %70 = and i32 %69, 16711680
  %71 = lshr i32 %70, 8
  %72 = or i32 %68, %71
  %73 = load i32, ptr %13, align 4
  %74 = and i32 %73, -16777216
  %75 = lshr i32 %74, 24
  %76 = or i32 %72, %75
  store i32 %76, ptr %13, align 4
  %77 = load i32, ptr %14, align 4
  %78 = and i32 %77, 255
  %79 = shl i32 %78, 24
  %80 = load i32, ptr %14, align 4
  %81 = and i32 %80, 65280
  %82 = shl i32 %81, 8
  %83 = or i32 %79, %82
  %84 = load i32, ptr %14, align 4
  %85 = and i32 %84, 16711680
  %86 = lshr i32 %85, 8
  %87 = or i32 %83, %86
  %88 = load i32, ptr %14, align 4
  %89 = and i32 %88, -16777216
  %90 = lshr i32 %89, 24
  %91 = or i32 %87, %90
  store i32 %91, ptr %14, align 4
  br label %96

92:                                               ; preds = %19
  %93 = load i32, ptr %13, align 4
  store i32 %93, ptr %13, align 4
  %94 = load i32, ptr %14, align 4
  store i32 %94, ptr %14, align 4
  br label %96

95:                                               ; preds = %19
  br label %112

96:                                               ; preds = %92, %61, %60
  %97 = load i32, ptr %13, align 4
  %98 = zext i32 %97 to i64
  store i64 %98, ptr %15, align 8
  %99 = load i64, ptr %15, align 8
  %100 = shl i64 %99, 32
  store i64 %100, ptr %15, align 8
  %101 = load i32, ptr %14, align 4
  %102 = zext i32 %101 to i64
  %103 = load i64, ptr %15, align 8
  %104 = add i64 %103, %102
  store i64 %104, ptr %15, align 8
  %105 = load ptr, ptr %7, align 8
  %106 = getelementptr inbounds %struct.wtapng_block_s, ptr %105, i32 0, i32 2
  %107 = load ptr, ptr %106, align 8
  %108 = load i16, ptr %10, align 2
  %109 = zext i16 %108 to i32
  %110 = load i64, ptr %15, align 8
  %111 = call i32 @wtap_block_add_uint64_option(ptr noundef %107, i32 noundef %109, i64 noundef %110)
  br label %112

112:                                              ; preds = %96, %95, %6
  ret void
}