; Function Attrs: nounwind uwtable
define void @pcapng_process_timestamp_option(ptr noundef readonly captures(none) %0, ptr noundef readonly captures(none) %1, i32 noundef %2, i16 noundef zeroext %3, i16 noundef zeroext %4, ptr noundef readonly captures(none) %5) local_unnamed_addr #0 {
  %7 = icmp eq i16 %4, 8
  br i1 %7, label %8, label %27

8:                                                ; preds = %6
  %.0.copyload13 = load i32, ptr %5, align 1
  %9 = getelementptr i8, ptr %5, i64 4
  %.0.copyload = load i32, ptr %9, align 1
  switch i32 %2, label %27 [
    i32 0, label %10
    i32 1, label %15
    i32 2, label %18
  ]

10:                                               ; preds = %8
  %11 = load i32, ptr %1, align 8
  %.not = icmp eq i32 %11, 0
  br i1 %.not, label %18, label %12

12:                                               ; preds = %10
  %13 = tail call i32 @llvm.bswap.i32(i32 %.0.copyload13)
  %14 = tail call i32 @llvm.bswap.i32(i32 %.0.copyload)
  br label %18

15:                                               ; preds = %8
  %16 = tail call i32 @llvm.bswap.i32(i32 %.0.copyload13)
  %17 = tail call i32 @llvm.bswap.i32(i32 %.0.copyload)
  br label %18

18:                                               ; preds = %8, %10, %12, %15
  %.030 = phi i32 [ %17, %15 ], [ %14, %12 ], [ %.0.copyload, %10 ], [ %.0.copyload, %8 ]
  %.0 = phi i32 [ %16, %15 ], [ %13, %12 ], [ %.0.copyload13, %10 ], [ %.0.copyload13, %8 ]
  %19 = zext i32 %.0 to i64
  %20 = shl nuw i64 %19, 32
  %21 = zext i32 %.030 to i64
  %22 = or disjoint i64 %20, %21
  %23 = getelementptr inbounds nuw i8, ptr %0, i64 8
  %24 = load ptr, ptr %23, align 8
  %25 = zext i16 %3 to i32
  %26 = tail call i32 @wtap_block_add_uint64_option(ptr noundef %24, i32 noundef %25, i64 noundef %22) #16
  br label %27

27:                                               ; preds = %8, %18, %6
  ret void
}